target datalayout = "e-m:e-p270:32:32-p271:32:32-p272:64:64-i64:64-i128:128-f80:128-n8:16:32:64-S128"
target triple = "x86_64-pc-linux-gnu"

; Function Attrs: nounwind uwtable
define dso_local i32 @ap_php_vslprintf(ptr noundef %0, i64 noundef %1, ptr noundef %2, ptr noundef %3) #0 {
  %5 = alloca ptr, align 8
  %6 = alloca i64, align 8
  %7 = alloca ptr, align 8
  %8 = alloca ptr, align 8
  %9 = alloca i64, align 8
  store ptr %0, ptr %5, align 8, !tbaa !13
  store i64 %1, ptr %6, align 8, !tbaa !4
  store ptr %2, ptr %7, align 8, !tbaa !13
  store ptr %3, ptr %8, align 8, !tbaa !30
  call void @llvm.lifetime.start.p0(i64 8, ptr %9) #15
  %10 = load ptr, ptr %5, align 8, !tbaa !13
  %11 = load i64, ptr %6, align 8, !tbaa !4
  %12 = load ptr, ptr %7, align 8, !tbaa !13
  %13 = load ptr, ptr %8, align 8, !tbaa !30
  %14 = call i64 @strx_printv(ptr noundef %10, i64 noundef %11, ptr noundef %12, ptr noundef %13)
  store i64 %14, ptr %9, align 8, !tbaa !4
  %15 = load i64, ptr %9, align 8, !tbaa !4
  %16 = load i64, ptr %6, align 8, !tbaa !4
  %17 = icmp uge i64 %15, %16
  br i1 %17, label %18, label %24

18:                                               ; preds = %4
  %19 = load i64, ptr %6, align 8, !tbaa !4
  %20 = sub i64 %19, 1
  store i64 %20, ptr %9, align 8, !tbaa !4
  %21 = load ptr, ptr %5, align 8, !tbaa !13
  %22 = load i64, ptr %9, align 8, !tbaa !4
  %23 = getelementptr inbounds nuw i8, ptr %21, i64 %22
  store i8 0, ptr %23, align 1, !tbaa !19
  br label %24

24:                                               ; preds = %18, %4
  %25 = load i64, ptr %9, align 8, !tbaa !4
  %26 = trunc i64 %25 to i32
  call void @llvm.lifetime.end.p0(i64 8, ptr %9) #15
  ret i32 %26
}