; Function Attrs: nounwind uwtable
define dso_local i32 @ap_php_vslprintf(ptr noundef captures(address) %0, i64 noundef %1, ptr noundef %2, ptr noundef %3) local_unnamed_addr #2 {
  %5 = tail call fastcc i64 @strx_printv(ptr noundef %0, i64 noundef %1, ptr noundef %2, ptr noundef %3)
  %.not = icmp ult i64 %5, %1
  br i1 %.not, label %9, label %6

6:                                                ; preds = %4
  %7 = add i64 %1, -1
  %8 = getelementptr inbounds nuw i8, ptr %0, i64 %7
  store i8 0, ptr %8, align 1, !tbaa !8
  br label %9

9:                                                ; preds = %6, %4
  %.0 = phi i64 [ %7, %6 ], [ %5, %4 ]
  %10 = trunc i64 %.0 to i32
  ret i32 %10
}